; Function Attrs: nounwind sspstrong uwtable
define internal noundef zeroext i1 @cmd_specify(ptr noundef captures(none) %s, i8 zeroext %cmd) #0 {
entry:
  %blk = getelementptr inbounds nuw i8, ptr %s, i64 672
  %0 = load ptr, ptr %blk, align 8
  %tobool.not = icmp eq ptr %0, null
  br i1 %tobool.not, label %if.else, label %land.lhs.true

land.lhs.true:                                    ; preds = %entry
  %drive_kind = getelementptr inbounds nuw i8, ptr %s, i64 12
  %1 = load i32, ptr %drive_kind, align 4
  %cmp.not = icmp eq i32 %1, 1
  br i1 %cmp.not, label %if.else, label %if.then

if.then:                                          ; preds = %land.lhs.true
  %select = getelementptr inbounds nuw i8, ptr %s, i64 664
  %2 = load i8, ptr %select, align 8
  %3 = and i8 %2, 15
  %narrow = add nuw nsw i8 %3, 1
  %add = zext nneg i8 %narrow to i32
  %heads = getelementptr inbounds nuw i8, ptr %s, i64 28
  store i32 %add, ptr %heads, align 4
  %nsector = getelementptr inbounds nuw i8, ptr %s, i64 652
  %4 = load i32, ptr %nsector, align 4
  %sectors = getelementptr inbounds nuw i8, ptr %s, i64 32
  store i32 %4, ptr %sectors, align 8
  %5 = load ptr, ptr %s, align 8
  %cmd.i = getelementptr inbounds nuw i8, ptr %5, i64 2129
  %6 = load i8, ptr %cmd.i, align 1
  %7 = and i8 %6, 2
  %tobool.not.i = icmp eq i8 %7, 0
  br i1 %tobool.not.i, label %if.then.i, label %if.end

if.then.i:                                        ; preds = %if.then
  %irq.i = getelementptr inbounds nuw i8, ptr %5, i64 2136
  %8 = load ptr, ptr %irq.i, align 8
  tail call void @qemu_set_irq(ptr noundef %8, i32 noundef 1) #17
  br label %if.end

if.else:                                          ; preds = %land.lhs.true, %entry
  %status.i = getelementptr inbounds nuw i8, ptr %s, i64 665
  %error.i = getelementptr inbounds nuw i8, ptr %s, i64 649
  store i8 4, ptr %error.i, align 1
  %end_transfer_func.i.i.i = getelementptr inbounds nuw i8, ptr %s, i64 864
  store ptr @ide_transfer_stop, ptr %end_transfer_func.i.i.i, align 8
  %io_buffer.i.i.i = getelementptr inbounds nuw i8, ptr %s, i64 888
  %9 = load ptr, ptr %io_buffer.i.i.i, align 8
  %data_ptr.i.i.i = getelementptr inbounds nuw i8, ptr %s, i64 872
  store ptr %9, ptr %data_ptr.i.i.i, align 8
  %data_end.i.i.i = getelementptr inbounds nuw i8, ptr %s, i64 880
  store ptr %9, ptr %data_end.i.i.i, align 8
  store i8 65, ptr %status.i, align 1
  %s.val.i.i = load ptr, ptr %s, align 8
  %10 = getelementptr i8, ptr %s.val.i.i, i64 2120
  %s.val.val.i.i = load ptr, ptr %10, align 8
  %11 = load ptr, ptr %s.val.val.i.i, align 8
  %cmd_done.i.i.i = getelementptr inbounds nuw i8, ptr %11, i64 64
  %12 = load ptr, ptr %cmd_done.i.i.i, align 8
  %tobool.not.i.i.i = icmp eq ptr %12, null
  br i1 %tobool.not.i.i.i, label %if.end, label %if.then.i.i.i

if.then.i.i.i:                                    ; preds = %if.else
  tail call void %12(ptr noundef nonnull %s.val.val.i.i) #17
  br label %if.end

if.end:                                           ; preds = %if.then.i.i.i, %if.else, %if.then.i, %if.then
  ret i1 true
}